; Function Attrs: mustprogress nofree norecurse nosync nounwind willreturn memory(read, inaccessiblemem: none) uwtable
define dso_local noundef zeroext i1 @_ZTv0_n32_N10cmDebugger26cmDebuggerPipeClient_POSIX6isOpenEv(ptr nocapture noundef readonly %0) unnamed_addr #11 align 2 {
  %2 = load ptr, ptr %0, align 8
  %3 = getelementptr inbounds i8, ptr %2, i64 -32
  %4 = load i64, ptr %3, align 8
  %5 = getelementptr inbounds i8, ptr %0, i64 %4
  %6 = getelementptr inbounds i8, ptr %5, i64 64
  %7 = load i32, ptr %6, align 8
  %8 = icmp sgt i32 %7, -1
  ret i1 %8
}